target datalayout = "e-m:e-p270:32:32-p271:32:32-p272:64:64-i64:64-i128:128-f80:128-n8:16:32:64-S128"
target triple = "x86_64-pc-linux-gnu"

%struct.nk_rect = type { float, float, float, float }
%struct.nk_vec2 = type { float, float }
%struct.nk_color = type { i8, i8, i8, i8 }
%struct.nk_allocator = type { %union.nk_handle, ptr, ptr }
%union.nk_handle = type { ptr }
%struct.nk_buffer = type { [2 x %struct.nk_buffer_marker], %struct.nk_allocator, i32, %struct.nk_memory, float, i64, i64, i64, i64 }
%struct.nk_buffer_marker = type { i32, i64 }
%struct.nk_memory = type { ptr, i64 }
%struct.nk_str = type { %struct.nk_buffer, i32 }
%struct.nk_command_buffer = type { ptr, %struct.nk_rect, i32, %union.nk_handle, i64, i64, i64 }
%struct.nk_image = type { %union.nk_handle, i16, i16, [4 x i16] }
%struct.nk_nine_slice = type { %struct.nk_image, i16, i16, i16, i16 }
%struct.nk_draw_list = type { %struct.nk_rect, [12 x %struct.nk_vec2], %struct.nk_convert_config, ptr, ptr, ptr, i32, i32, i32, i64, i32, i32, i32, i32 }
%struct.nk_convert_config = type { float, i32, i32, i32, i32, i32, %struct.nk_draw_null_texture, ptr, i64, i64 }
%struct.nk_draw_null_texture = type { %union.nk_handle, %struct.nk_vec2 }
%struct.nk_context = type { %struct.nk_input, %struct.nk_style, %struct.nk_buffer, %struct.nk_clipboard, i32, i32, %struct.nk_configuration_stacks, float, %struct.nk_draw_list, %struct.nk_text_edit, %struct.nk_command_buffer, i32, i32, %struct.nk_pool, ptr, ptr, ptr, ptr, ptr, i32, i32 }
%struct.nk_input = type { %struct.nk_keyboard, %struct.nk_mouse }
%struct.nk_keyboard = type { [30 x %struct.nk_key], [16 x i8], i32 }
%struct.nk_key = type { i32, i32 }
%struct.nk_mouse = type { [4 x %struct.nk_mouse_button], %struct.nk_vec2, %struct.nk_vec2, %struct.nk_vec2, %struct.nk_vec2, i8, i8, i8 }
%struct.nk_mouse_button = type { i32, i32, %struct.nk_vec2 }
%struct.nk_style = type { ptr, [7 x ptr], ptr, ptr, i32, %struct.nk_style_text, %struct.nk_style_button, %struct.nk_style_button, %struct.nk_style_button, %struct.nk_style_toggle, %struct.nk_style_toggle, %struct.nk_style_selectable, %struct.nk_style_slider, %struct.nk_style_knob, %struct.nk_style_progress, %struct.nk_style_property, %struct.nk_style_edit, %struct.nk_style_chart, %struct.nk_style_scrollbar, %struct.nk_style_scrollbar, %struct.nk_style_tab, %struct.nk_style_combo, %struct.nk_style_window }
%struct.nk_style_text = type { %struct.nk_color, %struct.nk_vec2, float, float }
%struct.nk_style_button = type { %struct.nk_style_item, %struct.nk_style_item, %struct.nk_style_item, %struct.nk_color, float, %struct.nk_color, %struct.nk_color, %struct.nk_color, %struct.nk_color, i32, float, float, float, %struct.nk_vec2, %struct.nk_vec2, %struct.nk_vec2, float, %union.nk_handle, ptr, ptr }
%struct.nk_style_item = type { i32, %union.nk_style_item_data }
%union.nk_style_item_data = type { %struct.nk_nine_slice }
%struct.nk_style_toggle = type { %struct.nk_style_item, %struct.nk_style_item, %struct.nk_style_item, %struct.nk_color, %struct.nk_style_item, %struct.nk_style_item, %struct.nk_color, %struct.nk_color, %struct.nk_color, %struct.nk_color, i32, %struct.nk_vec2, %struct.nk_vec2, float, float, float, float, %union.nk_handle, ptr, ptr }
%struct.nk_style_selectable = type { %struct.nk_style_item, %struct.nk_style_item, %struct.nk_style_item, %struct.nk_style_item, %struct.nk_style_item, %struct.nk_style_item, %struct.nk_color, %struct.nk_color, %struct.nk_color, %struct.nk_color, %struct.nk_color, %struct.nk_color, %struct.nk_color, i32, float, %struct.nk_vec2, %struct.nk_vec2, %struct.nk_vec2, float, float, %union.nk_handle, ptr, ptr }
%struct.nk_style_slider = type { %struct.nk_style_item, %struct.nk_style_item, %struct.nk_style_item, %struct.nk_color, %struct.nk_color, %struct.nk_color, %struct.nk_color, %struct.nk_color, %struct.nk_style_item, %struct.nk_style_item, %struct.nk_style_item, float, float, float, %struct.nk_vec2, %struct.nk_vec2, %struct.nk_vec2, float, float, i32, %struct.nk_style_button, %struct.nk_style_button, i32, i32, %union.nk_handle, ptr, ptr }
%struct.nk_style_knob = type { %struct.nk_style_item, %struct.nk_style_item, %struct.nk_style_item, %struct.nk_color, %struct.nk_color, %struct.nk_color, %struct.nk_color, %struct.nk_color, %struct.nk_color, %struct.nk_color, %struct.nk_color, float, float, %struct.nk_vec2, %struct.nk_vec2, float, float, float, %union.nk_handle, ptr, ptr }
%struct.nk_style_progress = type { %struct.nk_style_item, %struct.nk_style_item, %struct.nk_style_item, %struct.nk_color, %struct.nk_style_item, %struct.nk_style_item, %struct.nk_style_item, %struct.nk_color, float, float, float, float, %struct.nk_vec2, float, float, %union.nk_handle, ptr, ptr }
%struct.nk_style_property = type { %struct.nk_style_item, %struct.nk_style_item, %struct.nk_style_item, %struct.nk_color, %struct.nk_color, %struct.nk_color, %struct.nk_color, i32, i32, float, float, %struct.nk_vec2, float, float, %struct.nk_style_edit, %struct.nk_style_button, %struct.nk_style_button, %union.nk_handle, ptr, ptr }
%struct.nk_style_edit = type { %struct.nk_style_item, %struct.nk_style_item, %struct.nk_style_item, %struct.nk_color, %struct.nk_style_scrollbar, %struct.nk_color, %struct.nk_color, %struct.nk_color, %struct.nk_color, %struct.nk_color, %struct.nk_color, %struct.nk_color, %struct.nk_color, %struct.nk_color, %struct.nk_color, %struct.nk_color, float, float, float, %struct.nk_vec2, %struct.nk_vec2, float, float, float }
%struct.nk_style_chart = type { %struct.nk_style_item, %struct.nk_color, %struct.nk_color, %struct.nk_color, float, float, %struct.nk_vec2, float, float, i32 }
%struct.nk_style_scrollbar = type { %struct.nk_style_item, %struct.nk_style_item, %struct.nk_style_item, %struct.nk_color, %struct.nk_style_item, %struct.nk_style_item, %struct.nk_style_item, %struct.nk_color, float, float, float, float, %struct.nk_vec2, float, float, i32, %struct.nk_style_button, %struct.nk_style_button, i32, i32, %union.nk_handle, ptr, ptr }
%struct.nk_style_tab = type { %struct.nk_style_item, %struct.nk_color, %struct.nk_color, %struct.nk_style_button, %struct.nk_style_button, %struct.nk_style_button, %struct.nk_style_button, i32, i32, float, float, float, %struct.nk_vec2, %struct.nk_vec2, float, float }
%struct.nk_style_combo = type { %struct.nk_style_item, %struct.nk_style_item, %struct.nk_style_item, %struct.nk_color, %struct.nk_color, %struct.nk_color, %struct.nk_color, %struct.nk_color, %struct.nk_color, %struct.nk_color, %struct.nk_style_button, i32, i32, i32, float, float, %struct.nk_vec2, %struct.nk_vec2, %struct.nk_vec2, float, float }
%struct.nk_style_window = type { %struct.nk_style_window_header, %struct.nk_style_item, %struct.nk_color, %struct.nk_color, %struct.nk_color, %struct.nk_color, %struct.nk_color, %struct.nk_color, %struct.nk_color, %struct.nk_color, %struct.nk_style_item, float, float, float, float, float, float, float, float, float, %struct.nk_vec2, %struct.nk_vec2, %struct.nk_vec2, %struct.nk_vec2, %struct.nk_vec2, %struct.nk_vec2, %struct.nk_vec2, %struct.nk_vec2, %struct.nk_vec2, %struct.nk_vec2 }
%struct.nk_style_window_header = type { %struct.nk_style_item, %struct.nk_style_item, %struct.nk_style_item, %struct.nk_style_button, %struct.nk_style_button, i32, i32, i32, %struct.nk_color, %struct.nk_color, %struct.nk_color, i32, %struct.nk_vec2, %struct.nk_vec2, %struct.nk_vec2 }
%struct.nk_clipboard = type { %union.nk_handle, ptr, ptr }
%struct.nk_configuration_stacks = type { %struct.nk_config_stack_style_item, %struct.nk_config_stack_float, %struct.nk_config_stack_vec2, %struct.nk_config_stack_flags, %struct.nk_config_stack_color, %struct.nk_config_stack_user_font, %struct.nk_config_stack_button_behavior }
%struct.nk_config_stack_style_item = type { i32, [16 x %struct.nk_config_stack_style_item_element] }
%struct.nk_config_stack_style_item_element = type { ptr, %struct.nk_style_item }
%struct.nk_config_stack_float = type { i32, [32 x %struct.nk_config_stack_float_element] }
%struct.nk_config_stack_float_element = type { ptr, float }
%struct.nk_config_stack_vec2 = type { i32, [16 x %struct.nk_config_stack_vec2_element] }
%struct.nk_config_stack_vec2_element = type { ptr, %struct.nk_vec2 }
%struct.nk_config_stack_flags = type { i32, [32 x %struct.nk_config_stack_flags_element] }
%struct.nk_config_stack_flags_element = type { ptr, i32 }
%struct.nk_config_stack_color = type { i32, [32 x %struct.nk_config_stack_color_element] }
%struct.nk_config_stack_color_element = type { ptr, %struct.nk_color }
%struct.nk_config_stack_user_font = type { i32, [8 x %struct.nk_config_stack_user_font_element] }
%struct.nk_config_stack_user_font_element = type { ptr, ptr }
%struct.nk_config_stack_button_behavior = type { i32, [8 x %struct.nk_config_stack_button_behavior_element] }
%struct.nk_config_stack_button_behavior_element = type { ptr, i32 }
%struct.nk_text_edit = type { %struct.nk_clipboard, %struct.nk_str, ptr, %struct.nk_vec2, i32, i32, i32, i8, i8, i8, i8, i8, i8, i8, float, %struct.nk_text_undo_state }
%struct.nk_text_undo_state = type { [99 x %struct.nk_text_undo_record], [999 x i32], i16, i16, i16, i16 }
%struct.nk_text_undo_record = type { i32, i16, i16, i16 }
%struct.nk_pool = type { %struct.nk_allocator, i32, i32, ptr, ptr, i32, i64, i64 }
%struct.nk_window = type { i32, i32, [64 x i8], i32, %struct.nk_rect, %struct.nk_scroll, %struct.nk_command_buffer, ptr, float, %struct.nk_property_state, %struct.nk_popup_state, %struct.nk_edit_state, i32, i32, ptr, i32, ptr, ptr, ptr }
%struct.nk_scroll = type { i32, i32 }
%struct.nk_property_state = type { i32, i32, [64 x i8], i32, i32, i32, i32, i32, i32, i32, i32 }
%struct.nk_popup_state = type { ptr, i32, %struct.nk_popup_buffer, i32, i32, i32, i32, i32, i32, %struct.nk_rect }
%struct.nk_popup_buffer = type { i64, i64, i64, i64, i32 }
%struct.nk_edit_state = type { i32, i32, i32, i32, i32, i32, i32, i32, %struct.nk_scroll, i8, i8 }
%struct.nk_table = type { i32, i32, [60 x i32], [60 x i32], ptr, ptr }

; Function Attrs: nounwind uwtable
define internal ptr @nk_find_value(ptr noundef %0, i32 noundef %1) #0 {
  %3 = alloca ptr, align 8
  %4 = alloca ptr, align 8
  %5 = alloca i32, align 4
  %6 = alloca ptr, align 8
  %7 = alloca i32, align 4
  %8 = alloca i32, align 4
  %9 = alloca i32, align 4
  store ptr %0, ptr %4, align 8, !tbaa !424
  store i32 %1, ptr %5, align 4, !tbaa !13
  call void @llvm.lifetime.start.p0(i64 8, ptr %6) #10
  %10 = load ptr, ptr %4, align 8, !tbaa !424
  %11 = getelementptr inbounds nuw %struct.nk_window, ptr %10, i32 0, i32 14
  %12 = load ptr, ptr %11, align 8, !tbaa !1040
  store ptr %12, ptr %6, align 8, !tbaa !1041
  br label %13

13:                                               ; preds = %54, %2
  %14 = load ptr, ptr %6, align 8, !tbaa !1041
  %15 = icmp ne ptr %14, null
  br i1 %15, label %16, label %55

16:                                               ; preds = %13
  call void @llvm.lifetime.start.p0(i64 4, ptr %7) #10
  store i32 0, ptr %7, align 4, !tbaa !13
  call void @llvm.lifetime.start.p0(i64 4, ptr %8) #10
  %17 = load ptr, ptr %6, align 8, !tbaa !1041
  %18 = getelementptr inbounds nuw %struct.nk_table, ptr %17, i32 0, i32 1
  %19 = load i32, ptr %18, align 4, !tbaa !1195
  store i32 %19, ptr %8, align 4, !tbaa !13
  store i32 0, ptr %7, align 4, !tbaa !13
  br label %20

20:                                               ; preds = %45, %16
  %21 = load i32, ptr %7, align 4, !tbaa !13
  %22 = load i32, ptr %8, align 4, !tbaa !13
  %23 = icmp ult i32 %21, %22
  br i1 %23, label %24, label %48

24:                                               ; preds = %20
  %25 = load ptr, ptr %6, align 8, !tbaa !1041
  %26 = getelementptr inbounds nuw %struct.nk_table, ptr %25, i32 0, i32 2
  %27 = load i32, ptr %7, align 4, !tbaa !13
  %28 = zext i32 %27 to i64
  %29 = getelementptr inbounds nuw [60 x i32], ptr %26, i64 0, i64 %28
  %30 = load i32, ptr %29, align 4, !tbaa !13
  %31 = load i32, ptr %5, align 4, !tbaa !13
  %32 = icmp eq i32 %30, %31
  br i1 %32, label %33, label %44

33:                                               ; preds = %24
  %34 = load ptr, ptr %4, align 8, !tbaa !424
  %35 = getelementptr inbounds nuw %struct.nk_window, ptr %34, i32 0, i32 0
  %36 = load i32, ptr %35, align 8, !tbaa !436
  %37 = load ptr, ptr %6, align 8, !tbaa !1041
  %38 = getelementptr inbounds nuw %struct.nk_table, ptr %37, i32 0, i32 0
  store i32 %36, ptr %38, align 8, !tbaa !1044
  %39 = load ptr, ptr %6, align 8, !tbaa !1041
  %40 = getelementptr inbounds nuw %struct.nk_table, ptr %39, i32 0, i32 3
  %41 = load i32, ptr %7, align 4, !tbaa !13
  %42 = zext i32 %41 to i64
  %43 = getelementptr inbounds nuw [60 x i32], ptr %40, i64 0, i64 %42
  store ptr %43, ptr %3, align 8
  store i32 1, ptr %9, align 4
  br label %52

44:                                               ; preds = %24
  br label %45

45:                                               ; preds = %44
  %46 = load i32, ptr %7, align 4, !tbaa !13
  %47 = add i32 %46, 1
  store i32 %47, ptr %7, align 4, !tbaa !13
  br label %20, !llvm.loop !1196

48:                                               ; preds = %20
  store i32 60, ptr %8, align 4, !tbaa !13
  %49 = load ptr, ptr %6, align 8, !tbaa !1041
  %50 = getelementptr inbounds nuw %struct.nk_table, ptr %49, i32 0, i32 4
  %51 = load ptr, ptr %50, align 8, !tbaa !1042
  store ptr %51, ptr %6, align 8, !tbaa !1041
  store i32 0, ptr %9, align 4
  br label %52

52:                                               ; preds = %48, %33
  call void @llvm.lifetime.end.p0(i64 4, ptr %8) #10
  call void @llvm.lifetime.end.p0(i64 4, ptr %7) #10
  %53 = load i32, ptr %9, align 4
  switch i32 %53, label %56 [
    i32 0, label %54
  ]

54:                                               ; preds = %52
  br label %13, !llvm.loop !1197

55:                                               ; preds = %13
  store ptr null, ptr %3, align 8
  store i32 1, ptr %9, align 4
  br label %56

56:                                               ; preds = %55, %52
  call void @llvm.lifetime.end.p0(i64 8, ptr %6) #10
  %57 = load ptr, ptr %3, align 8
  ret ptr %57
}

; Function Attrs: nounwind uwtable
define i32 @nk_strlen(ptr noundef %0) #0 {
  %2 = alloca ptr, align 8
  %3 = alloca i32, align 4
  store ptr %0, ptr %2, align 8, !tbaa !26
  call void @llvm.lifetime.start.p0(i64 4, ptr %3) #10
  store i32 0, ptr %3, align 4, !tbaa !13
  br label %4

4:                                                ; preds = %15, %1
  %5 = load ptr, ptr %2, align 8, !tbaa !26
  %6 = icmp ne ptr %5, null
  br i1 %6, label %7, label %13

7:                                                ; preds = %4
  %8 = load ptr, ptr %2, align 8, !tbaa !26
  %9 = getelementptr inbounds nuw i8, ptr %8, i32 1
  store ptr %9, ptr %2, align 8, !tbaa !26
  %10 = load i8, ptr %8, align 1, !tbaa !28
  %11 = sext i8 %10 to i32
  %12 = icmp ne i32 %11, 0
  br label %13

13:                                               ; preds = %7, %4
  %14 = phi i1 [ false, %4 ], [ %12, %7 ]
  br i1 %14, label %15, label %18

15:                                               ; preds = %13
  %16 = load i32, ptr %3, align 4, !tbaa !13
  %17 = add nsw i32 %16, 1
  store i32 %17, ptr %3, align 4, !tbaa !13
  br label %4, !llvm.loop !29

18:                                               ; preds = %13
  %19 = load i32, ptr %3, align 4, !tbaa !13
  call void @llvm.lifetime.end.p0(i64 4, ptr %3) #10
  ret i32 %19
}

; Function Attrs: nounwind uwtable
define i32 @nk_group_begin_titled(ptr noundef %0, ptr noundef %1, ptr noundef %2, i32 noundef %3) #0 {
  %5 = alloca i32, align 4
  %6 = alloca ptr, align 8
  %7 = alloca ptr, align 8
  %8 = alloca ptr, align 8
  %9 = alloca i32, align 4
  %10 = alloca i32, align 4
  %11 = alloca i32, align 4
  %12 = alloca ptr, align 8
  %13 = alloca ptr, align 8
  %14 = alloca ptr, align 8
  %15 = alloca i32, align 4
  store ptr %0, ptr %6, align 8, !tbaa !372
  store ptr %1, ptr %7, align 8, !tbaa !26
  store ptr %2, ptr %8, align 8, !tbaa !26
  store i32 %3, ptr %9, align 4, !tbaa !13
  call void @llvm.lifetime.start.p0(i64 4, ptr %10) #10
  call void @llvm.lifetime.start.p0(i64 4, ptr %11) #10
  call void @llvm.lifetime.start.p0(i64 8, ptr %12) #10
  call void @llvm.lifetime.start.p0(i64 8, ptr %13) #10
  call void @llvm.lifetime.start.p0(i64 8, ptr %14) #10
  %16 = load ptr, ptr %6, align 8, !tbaa !372
  %17 = icmp ne ptr %16, null
  br i1 %17, label %18, label %33

18:                                               ; preds = %4
  %19 = load ptr, ptr %6, align 8, !tbaa !372
  %20 = getelementptr inbounds nuw %struct.nk_context, ptr %19, i32 0, i32 17
  %21 = load ptr, ptr %20, align 8, !tbaa !955
  %22 = icmp ne ptr %21, null
  br i1 %22, label %23, label %33

23:                                               ; preds = %18
  %24 = load ptr, ptr %6, align 8, !tbaa !372
  %25 = getelementptr inbounds nuw %struct.nk_context, ptr %24, i32 0, i32 17
  %26 = load ptr, ptr %25, align 8, !tbaa !955
  %27 = getelementptr inbounds nuw %struct.nk_window, ptr %26, i32 0, i32 7
  %28 = load ptr, ptr %27, align 8, !tbaa !956
  %29 = icmp ne ptr %28, null
  br i1 %29, label %30, label %33

30:                                               ; preds = %23
  %31 = load ptr, ptr %7, align 8, !tbaa !26
  %32 = icmp ne ptr %31, null
  br i1 %32, label %34, label %33

33:                                               ; preds = %30, %23, %18, %4
  store i32 0, ptr %5, align 4
  store i32 1, ptr %15, align 4
  br label %79

34:                                               ; preds = %30
  %35 = load ptr, ptr %6, align 8, !tbaa !372
  %36 = getelementptr inbounds nuw %struct.nk_context, ptr %35, i32 0, i32 17
  %37 = load ptr, ptr %36, align 8, !tbaa !955
  store ptr %37, ptr %12, align 8, !tbaa !424
  %38 = load ptr, ptr %7, align 8, !tbaa !26
  %39 = call i32 @nk_strlen(ptr noundef %38)
  store i32 %39, ptr %10, align 4, !tbaa !13
  %40 = load ptr, ptr %7, align 8, !tbaa !26
  %41 = load i32, ptr %10, align 4, !tbaa !13
  %42 = call i32 @nk_murmur_hash(ptr noundef %40, i32 noundef %41, i32 noundef 2)
  store i32 %42, ptr %11, align 4, !tbaa !13
  %43 = load ptr, ptr %12, align 8, !tbaa !424
  %44 = load i32, ptr %11, align 4, !tbaa !13
  %45 = call ptr @nk_find_value(ptr noundef %43, i32 noundef %44)
  store ptr %45, ptr %13, align 8, !tbaa !21
  %46 = load ptr, ptr %13, align 8, !tbaa !21
  %47 = icmp ne ptr %46, null
  br i1 %47, label %67, label %48

48:                                               ; preds = %34
  %49 = load ptr, ptr %6, align 8, !tbaa !372
  %50 = load ptr, ptr %12, align 8, !tbaa !424
  %51 = load i32, ptr %11, align 4, !tbaa !13
  %52 = call ptr @nk_add_value(ptr noundef %49, ptr noundef %50, i32 noundef %51, i32 noundef 0)
  store ptr %52, ptr %13, align 8, !tbaa !21
  %53 = load ptr, ptr %6, align 8, !tbaa !372
  %54 = load ptr, ptr %12, align 8, !tbaa !424
  %55 = load i32, ptr %11, align 4, !tbaa !13
  %56 = add i32 %55, 1
  %57 = call ptr @nk_add_value(ptr noundef %53, ptr noundef %54, i32 noundef %56, i32 noundef 0)
  store ptr %57, ptr %14, align 8, !tbaa !21
  %58 = load ptr, ptr %13, align 8, !tbaa !21
  %59 = icmp ne ptr %58, null
  br i1 %59, label %60, label %63

60:                                               ; preds = %48
  %61 = load ptr, ptr %14, align 8, !tbaa !21
  %62 = icmp ne ptr %61, null
  br i1 %62, label %64, label %63

63:                                               ; preds = %60, %48
  store i32 0, ptr %5, align 4
  store i32 1, ptr %15, align 4
  br label %79

64:                                               ; preds = %60
  %65 = load ptr, ptr %14, align 8, !tbaa !21
  store i32 0, ptr %65, align 4, !tbaa !13
  %66 = load ptr, ptr %13, align 8, !tbaa !21
  store i32 0, ptr %66, align 4, !tbaa !13
  br label %72

67:                                               ; preds = %34
  %68 = load ptr, ptr %12, align 8, !tbaa !424
  %69 = load i32, ptr %11, align 4, !tbaa !13
  %70 = add i32 %69, 1
  %71 = call ptr @nk_find_value(ptr noundef %68, i32 noundef %70)
  store ptr %71, ptr %14, align 8, !tbaa !21
  br label %72

72:                                               ; preds = %67, %64
  %73 = load ptr, ptr %6, align 8, !tbaa !372
  %74 = load ptr, ptr %13, align 8, !tbaa !21
  %75 = load ptr, ptr %14, align 8, !tbaa !21
  %76 = load ptr, ptr %8, align 8, !tbaa !26
  %77 = load i32, ptr %9, align 4, !tbaa !13
  %78 = call i32 @nk_group_scrolled_offset_begin(ptr noundef %73, ptr noundef %74, ptr noundef %75, ptr noundef %76, i32 noundef %77)
  store i32 %78, ptr %5, align 4
  store i32 1, ptr %15, align 4
  br label %79

79:                                               ; preds = %72, %63, %33
  call void @llvm.lifetime.end.p0(i64 8, ptr %14) #10
  call void @llvm.lifetime.end.p0(i64 8, ptr %13) #10
  call void @llvm.lifetime.end.p0(i64 8, ptr %12) #10
  call void @llvm.lifetime.end.p0(i64 4, ptr %11) #10
  call void @llvm.lifetime.end.p0(i64 4, ptr %10) #10
  %80 = load i32, ptr %5, align 4
  ret i32 %80
}