; Function Attrs: nounwind uwtable
define range(i32 0, 32769) i32 @nk_group_begin_titled(ptr noundef %0, ptr noundef captures(address_is_null) %1, ptr noundef %2, i32 noundef %3) local_unnamed_addr #18 {
  %.not = icmp eq ptr %0, null
  br i1 %.not, label %51, label %5

5:                                                ; preds = %4
  %6 = getelementptr inbounds nuw i8, ptr %0, i64 18520
  %7 = load ptr, ptr %6, align 8, !tbaa !824
  %.not39 = icmp eq ptr %7, null
  br i1 %.not39, label %51, label %8

8:                                                ; preds = %5
  %9 = getelementptr inbounds nuw i8, ptr %7, i64 168
  %10 = load ptr, ptr %9, align 8, !tbaa !825
  %11 = icmp ne ptr %10, null
  %12 = icmp ne ptr %1, null
  %or.cond = and i1 %12, %11
  br i1 %or.cond, label %.lr.ph.i.preheader, label %51

.lr.ph.i.preheader:                               ; preds = %8
  %13 = load i8, ptr %1, align 1, !tbaa !9
  %.not4.i64 = icmp eq i8 %13, 0
  br i1 %.not4.i64, label %nk_strlen.exit, label %.lr.ph.i

.lr.ph.i:                                         ; preds = %.lr.ph.i.preheader, %.lr.ph.i
  %.036.i66 = phi ptr [ %14, %.lr.ph.i ], [ %1, %.lr.ph.i.preheader ]
  %.07.i65 = phi i32 [ %15, %.lr.ph.i ], [ 0, %.lr.ph.i.preheader ]
  %14 = getelementptr inbounds nuw i8, ptr %.036.i66, i64 1
  %15 = add nuw nsw i32 %.07.i65, 1
  %16 = load i8, ptr %14, align 1, !tbaa !9
  %.not4.i = icmp eq i8 %16, 0
  br i1 %.not4.i, label %nk_strlen.exit, label %.lr.ph.i

nk_strlen.exit:                                   ; preds = %.lr.ph.i, %.lr.ph.i.preheader
  %.07.i.lcssa = phi i32 [ 0, %.lr.ph.i.preheader ], [ %15, %.lr.ph.i ]
  %17 = tail call i32 @nk_murmur_hash(ptr noundef nonnull %1, i32 noundef %.07.i.lcssa, i32 noundef 2)
  %18 = getelementptr inbounds nuw i8, ptr %7, i64 440
  %.01625.i = load ptr, ptr %18, align 8, !tbaa !1017
  %.not26.i = icmp eq ptr %.01625.i, null
  br i1 %.not26.i, label %.loopexit, label %.lr.ph29.i

.lr.ph29.i:                                       ; preds = %nk_strlen.exit, %._crit_edge.i
  %.01627.i = phi ptr [ %.016.i, %._crit_edge.i ], [ %.01625.i, %nk_strlen.exit ]
  %19 = getelementptr inbounds nuw i8, ptr %.01627.i, i64 4
  %20 = load i32, ptr %19, align 4, !tbaa !1018
  %.not1923.not.i = icmp eq i32 %20, 0
  br i1 %.not1923.not.i, label %._crit_edge.i, label %.lr.ph.i41

.lr.ph.i41:                                       ; preds = %.lr.ph29.i
  %21 = getelementptr inbounds nuw i8, ptr %.01627.i, i64 8
  %wide.trip.count.i = zext i32 %20 to i64
  br label %23

22:                                               ; preds = %23
  %indvars.iv.next.i = add nuw nsw i64 %indvars.iv.i, 1
  %exitcond.not.i = icmp eq i64 %indvars.iv.next.i, %wide.trip.count.i
  br i1 %exitcond.not.i, label %._crit_edge.i, label %23, !llvm.loop !1019

23:                                               ; preds = %22, %.lr.ph.i41
  %indvars.iv.i = phi i64 [ 0, %.lr.ph.i41 ], [ %indvars.iv.next.i, %22 ]
  %24 = getelementptr inbounds nuw [60 x i32], ptr %21, i64 0, i64 %indvars.iv.i
  %25 = load i32, ptr %24, align 4, !tbaa !7
  %26 = icmp eq i32 %25, %17
  br i1 %26, label %34, label %22

._crit_edge.i:                                    ; preds = %22, %.lr.ph29.i
  %27 = getelementptr inbounds nuw i8, ptr %.01627.i, i64 488
  %.016.i = load ptr, ptr %27, align 8, !tbaa !1017
  %.not.i = icmp eq ptr %.016.i, null
  br i1 %.not.i, label %.loopexit, label %.lr.ph29.i

.loopexit:                                        ; preds = %._crit_edge.i, %nk_strlen.exit
  %28 = tail call fastcc ptr @nk_add_value(ptr noundef nonnull %0, ptr noundef nonnull %7, i32 noundef %17)
  %29 = add i32 %17, 1
  %30 = tail call fastcc ptr @nk_add_value(ptr noundef nonnull %0, ptr noundef nonnull %7, i32 noundef %29)
  %31 = icmp ne ptr %28, null
  %32 = icmp ne ptr %30, null
  %or.cond3 = and i1 %31, %32
  br i1 %or.cond3, label %33, label %51

33:                                               ; preds = %.loopexit
  store i32 0, ptr %30, align 4, !tbaa !7
  store i32 0, ptr %28, align 4, !tbaa !7
  br label %nk_find_value.exit57

34:                                               ; preds = %23
  %35 = load i32, ptr %7, align 8, !tbaa !362
  store i32 %35, ptr %.01627.i, align 8, !tbaa !886
  %36 = getelementptr inbounds nuw i8, ptr %.01627.i, i64 248
  %37 = getelementptr inbounds nuw [60 x i32], ptr %36, i64 0, i64 %indvars.iv.i
  %38 = add i32 %17, 1
  br label %.lr.ph29.i44

.lr.ph29.i44:                                     ; preds = %34, %._crit_edge.i52
  %.01627.i45 = phi ptr [ %.016.i53, %._crit_edge.i52 ], [ %.01625.i, %34 ]
  %39 = getelementptr inbounds nuw i8, ptr %.01627.i45, i64 4
  %40 = load i32, ptr %39, align 4, !tbaa !1018
  %.not1923.not.i46 = icmp eq i32 %40, 0
  br i1 %.not1923.not.i46, label %._crit_edge.i52, label %.lr.ph.i47

.lr.ph.i47:                                       ; preds = %.lr.ph29.i44
  %41 = getelementptr inbounds nuw i8, ptr %.01627.i45, i64 8
  %wide.trip.count.i48 = zext i32 %40 to i64
  br label %43

42:                                               ; preds = %43
  %indvars.iv.next.i50 = add nuw nsw i64 %indvars.iv.i49, 1
  %exitcond.not.i51 = icmp eq i64 %indvars.iv.next.i50, %wide.trip.count.i48
  br i1 %exitcond.not.i51, label %._crit_edge.i52, label %43, !llvm.loop !1019

43:                                               ; preds = %42, %.lr.ph.i47
  %indvars.iv.i49 = phi i64 [ 0, %.lr.ph.i47 ], [ %indvars.iv.next.i50, %42 ]
  %44 = getelementptr inbounds nuw [60 x i32], ptr %41, i64 0, i64 %indvars.iv.i49
  %45 = load i32, ptr %44, align 4, !tbaa !7
  %46 = icmp eq i32 %45, %38
  br i1 %46, label %.thread.i56, label %42

.thread.i56:                                      ; preds = %43
  store i32 %35, ptr %.01627.i45, align 8, !tbaa !886
  %47 = getelementptr inbounds nuw i8, ptr %.01627.i45, i64 248
  %48 = getelementptr inbounds nuw [60 x i32], ptr %47, i64 0, i64 %indvars.iv.i49
  br label %nk_find_value.exit57

._crit_edge.i52:                                  ; preds = %42, %.lr.ph29.i44
  %49 = getelementptr inbounds nuw i8, ptr %.01627.i45, i64 488
  %.016.i53 = load ptr, ptr %49, align 8, !tbaa !1017
  %.not.i54 = icmp eq ptr %.016.i53, null
  br i1 %.not.i54, label %nk_find_value.exit57, label %.lr.ph29.i44

nk_find_value.exit57:                             ; preds = %._crit_edge.i52, %.thread.i56, %33
  %.031 = phi ptr [ %28, %33 ], [ %37, %.thread.i56 ], [ %37, %._crit_edge.i52 ]
  %.0 = phi ptr [ %30, %33 ], [ %48, %.thread.i56 ], [ null, %._crit_edge.i52 ]
  %50 = tail call i32 @nk_group_scrolled_offset_begin(ptr noundef nonnull %0, ptr noundef nonnull %.031, ptr noundef %.0, ptr noundef %2, i32 noundef %3)
  br label %51

51:                                               ; preds = %.loopexit, %4, %5, %8, %nk_find_value.exit57
  %.032 = phi i32 [ %50, %nk_find_value.exit57 ], [ 0, %8 ], [ 0, %5 ], [ 0, %4 ], [ 0, %.loopexit ]
  ret i32 %.032
}